target datalayout = "e-m:e-p270:32:32-p271:32:32-p272:64:64-i64:64-i128:128-f80:128-n8:16:32:64-S128"
target triple = "x86_64-pc-linux-gnu"

%struct.__sigset_t = type { [16 x i64] }
%struct.__va_list_tag = type { i32, i32, ptr, ptr }
%struct.sigaction = type { %union.anon.7, %struct.__sigset_t, i32, ptr }
%union.anon.7 = type { ptr }

@stderr = external global ptr, align 8
@.str.7 = private unnamed_addr constant [14 x i8] c"qemu: fatal: \00", align 1
@.str.8 = private unnamed_addr constant [2 x i8] c"\0A\00", align 1

; Function Attrs: alwaysinline
define internal i32 @vfprintf.inline(ptr noalias %0, ptr noalias %1, ptr %2) #10 {
  %4 = alloca ptr, align 8
  %5 = alloca ptr, align 8
  %6 = alloca ptr, align 8
  store ptr %0, ptr %4, align 8
  store ptr %1, ptr %5, align 8
  store ptr %2, ptr %6, align 8
  %7 = load ptr, ptr %4, align 8
  %8 = load ptr, ptr %5, align 8
  %9 = load ptr, ptr %6, align 8
  %10 = call i32 @__vfprintf_chk(ptr noundef %7, i32 noundef 1, ptr noundef %8, ptr noundef %9)
  ret i32 %10
}

; Function Attrs: noreturn nounwind sspstrong uwtable
define dso_local void @cpu_abort(ptr noundef %0, ptr noundef %1, ...) #7 {
  %3 = alloca ptr, align 8
  %4 = alloca ptr, align 8
  %5 = alloca [1 x %struct.__va_list_tag], align 16
  %6 = alloca [1 x %struct.__va_list_tag], align 16
  %7 = alloca ptr, align 8
  %8 = alloca %struct.sigaction, align 8
  store ptr %0, ptr %3, align 8
  store ptr %1, ptr %4, align 8
  call void @llvm.lifetime.start.p0(i64 24, ptr %5) #16
  call void @llvm.memset.p0.i64(ptr align 16 %5, i8 0, i64 24, i1 false), !annotation !7
  call void @llvm.lifetime.start.p0(i64 24, ptr %6) #16
  call void @llvm.memset.p0.i64(ptr align 16 %6, i8 0, i64 24, i1 false), !annotation !7
  %9 = getelementptr inbounds [1 x %struct.__va_list_tag], ptr %5, i64 0, i64 0
  call void @llvm.va_start.p0(ptr %9)
  %10 = getelementptr inbounds [1 x %struct.__va_list_tag], ptr %6, i64 0, i64 0
  %11 = getelementptr inbounds [1 x %struct.__va_list_tag], ptr %5, i64 0, i64 0
  call void @llvm.va_copy.p0(ptr %10, ptr %11)
  %12 = load ptr, ptr @stderr, align 8
  %13 = call i32 (ptr, i32, ptr, ...) @__fprintf_chk(ptr noundef %12, i32 noundef 1, ptr noundef @.str.7)
  %14 = load ptr, ptr @stderr, align 8
  %15 = load ptr, ptr %4, align 8
  %16 = getelementptr inbounds [1 x %struct.__va_list_tag], ptr %5, i64 0, i64 0
  %17 = call i32 @vfprintf.inline(ptr noundef %14, ptr noundef %15, ptr noundef %16) #16
  %18 = load ptr, ptr @stderr, align 8
  %19 = call i32 (ptr, i32, ptr, ...) @__fprintf_chk(ptr noundef %18, i32 noundef 1, ptr noundef @.str.8)
  %20 = load ptr, ptr %3, align 8
  %21 = load ptr, ptr @stderr, align 8
  call void @cpu_dump_state(ptr noundef %20, ptr noundef %21, i32 noundef 393216)
  %22 = call zeroext i1 @qemu_log_separate()
  br i1 %22, label %23, label %40

23:                                               ; preds = %2
  call void @llvm.lifetime.start.p0(i64 8, ptr %7) #16
  %24 = call ptr @qemu_log_trylock()
  store ptr %24, ptr %7, align 8
  %25 = load ptr, ptr %7, align 8
  %26 = icmp ne ptr %25, null
  br i1 %26, label %27, label %39

27:                                               ; preds = %23
  %28 = load ptr, ptr %7, align 8
  %29 = call i32 (ptr, i32, ptr, ...) @__fprintf_chk(ptr noundef %28, i32 noundef 1, ptr noundef @.str.7)
  %30 = load ptr, ptr %7, align 8
  %31 = load ptr, ptr %4, align 8
  %32 = getelementptr inbounds [1 x %struct.__va_list_tag], ptr %6, i64 0, i64 0
  %33 = call i32 @vfprintf.inline(ptr noundef %30, ptr noundef %31, ptr noundef %32) #16
  %34 = load ptr, ptr %7, align 8
  %35 = call i32 (ptr, i32, ptr, ...) @__fprintf_chk(ptr noundef %34, i32 noundef 1, ptr noundef @.str.8)
  %36 = load ptr, ptr %3, align 8
  %37 = load ptr, ptr %7, align 8
  call void @cpu_dump_state(ptr noundef %36, ptr noundef %37, i32 noundef 393216)
  %38 = load ptr, ptr %7, align 8
  call void @qemu_log_unlock(ptr noundef %38)
  br label %39

39:                                               ; preds = %27, %23
  call void @llvm.lifetime.end.p0(i64 8, ptr %7) #16
  br label %40

40:                                               ; preds = %39, %2
  %41 = getelementptr inbounds [1 x %struct.__va_list_tag], ptr %6, i64 0, i64 0
  call void @llvm.va_end.p0(ptr %41)
  %42 = getelementptr inbounds [1 x %struct.__va_list_tag], ptr %5, i64 0, i64 0
  call void @llvm.va_end.p0(ptr %42)
  call void @replay_finish()
  call void @llvm.lifetime.start.p0(i64 152, ptr %8) #16
  call void @llvm.memset.p0.i64(ptr align 8 %8, i8 0, i64 152, i1 false), !annotation !7
  %43 = getelementptr inbounds nuw %struct.sigaction, ptr %8, i32 0, i32 1
  %44 = call i32 @sigfillset(ptr noundef %43) #16
  %45 = getelementptr inbounds nuw %struct.sigaction, ptr %8, i32 0, i32 0
  store ptr null, ptr %45, align 8
  %46 = getelementptr inbounds nuw %struct.sigaction, ptr %8, i32 0, i32 2
  store i32 0, ptr %46, align 8
  %47 = call i32 @sigaction(i32 noundef 6, ptr noundef %8, ptr noundef null) #16
  call void @llvm.lifetime.end.p0(i64 152, ptr %8) #16
  call void @abort() #15
  unreachable
}