; Function Attrs: cold noreturn nounwind sspstrong uwtable
define dso_local void @cpu_abort(ptr noundef %0, ptr noundef %1, ...) local_unnamed_addr #7 {
  %3 = alloca [1 x %struct.__va_list_tag], align 16
  %4 = alloca [1 x %struct.__va_list_tag], align 16
  %5 = alloca %struct.sigaction, align 8
  call void @llvm.lifetime.start.p0(i64 24, ptr nonnull %3) #17
  call void @llvm.memset.p0.i64(ptr noundef nonnull align 16 dereferenceable(24) %3, i8 0, i64 24, i1 false), !annotation !7
  call void @llvm.lifetime.start.p0(i64 24, ptr nonnull %4) #17
  call void @llvm.memset.p0.i64(ptr noundef nonnull align 16 dereferenceable(24) %4, i8 0, i64 24, i1 false), !annotation !7
  call void @llvm.va_start.p0(ptr nonnull %3)
  call void @llvm.va_copy.p0(ptr nonnull %4, ptr nonnull %3)
  %6 = load ptr, ptr @stderr, align 8
  %7 = call i32 (ptr, i32, ptr, ...) @__fprintf_chk(ptr noundef %6, i32 noundef 1, ptr noundef nonnull @.str.7) #17
  %8 = load ptr, ptr @stderr, align 8
  %9 = call i32 @__vfprintf_chk(ptr noundef %8, i32 noundef 1, ptr noundef %1, ptr noundef nonnull %3) #17
  %10 = load ptr, ptr @stderr, align 8
  %11 = call i32 (ptr, i32, ptr, ...) @__fprintf_chk(ptr noundef %10, i32 noundef 1, ptr noundef nonnull @.str.8) #17
  %12 = load ptr, ptr @stderr, align 8
  call void @cpu_dump_state(ptr noundef %0, ptr noundef %12, i32 noundef 393216) #17
  %13 = call zeroext i1 @qemu_log_separate() #17
  br i1 %13, label %14, label %20

14:                                               ; preds = %2
  %15 = call ptr @qemu_log_trylock() #17
  %.not = icmp eq ptr %15, null
  br i1 %.not, label %20, label %16

16:                                               ; preds = %14
  %17 = call i32 (ptr, i32, ptr, ...) @__fprintf_chk(ptr noundef nonnull %15, i32 noundef 1, ptr noundef nonnull @.str.7) #17
  %18 = call i32 @__vfprintf_chk(ptr noundef nonnull %15, i32 noundef 1, ptr noundef %1, ptr noundef nonnull %4) #17
  %19 = call i32 (ptr, i32, ptr, ...) @__fprintf_chk(ptr noundef nonnull %15, i32 noundef 1, ptr noundef nonnull @.str.8) #17
  call void @cpu_dump_state(ptr noundef %0, ptr noundef nonnull %15, i32 noundef 393216) #17
  call void @qemu_log_unlock(ptr noundef nonnull %15) #17
  br label %20

20:                                               ; preds = %14, %16, %2
  call void @llvm.va_end.p0(ptr nonnull %4)
  call void @llvm.va_end.p0(ptr nonnull %3)
  call void @replay_finish() #17
  call void @llvm.lifetime.start.p0(i64 152, ptr nonnull %5) #17
  call void @llvm.memset.p0.i64(ptr noundef nonnull align 8 dereferenceable(152) %5, i8 0, i64 152, i1 false), !annotation !7
  %21 = getelementptr inbounds nuw i8, ptr %5, i64 8
  %22 = call i32 @sigfillset(ptr noundef nonnull %21) #17
  store ptr null, ptr %5, align 8
  %23 = getelementptr inbounds nuw i8, ptr %5, i64 136
  store i32 0, ptr %23, align 8
  %24 = call i32 @sigaction(i32 noundef 6, ptr noundef nonnull %5, ptr noundef null) #17
  call void @llvm.lifetime.end.p0(i64 152, ptr nonnull %5) #17
  call void @abort() #18
  unreachable
}